target datalayout = "e-m:e-p270:32:32-p271:32:32-p272:64:64-i64:64-i128:128-f80:128-n8:16:32:64-S128"
target triple = "x86_64-pc-linux-gnu"

%struct.dirent = type { i64, i64, i16, i8, [256 x i8] }
%struct.state = type { i32, i32, i32, i32, i8, i8, [2000 x i64], [2000 x i8], [256 x %struct.ttinfo], [512 x i8], [50 x %struct.lsinfo], i32 }
%struct.ttinfo = type { i32, i8, i32, i8, i8 }
%struct.lsinfo = type { i64, i64 }
%struct.pg_tz = type { [256 x i8], %struct.state }
%struct.pg_tzenum = type { i32, i32, [10 x ptr], [10 x ptr], %struct.pg_tz }

@.str.2 = private unnamed_addr constant [7 x i8] c"pgtz.c\00", align 1
@.str.7 = private unnamed_addr constant [34 x i8] c"could not open directory \22%s\22: %m\00", align 1
@.str.8 = private unnamed_addr constant [6 x i8] c"%s/%s\00", align 1
@.str.9 = private unnamed_addr constant [34 x i8] c"timezone directory stack overflow\00", align 1
@__func__.pg_tzenumerate_next = private unnamed_addr constant [20 x i8] c"pg_tzenumerate_next\00", align 1

; Function Attrs: nounwind uwtable
define dso_local ptr @pg_tzenumerate_next(ptr noundef %0) #0 {
  %2 = alloca ptr, align 8
  %3 = alloca ptr, align 8
  %4 = alloca ptr, align 8
  %5 = alloca [2048 x i8], align 16
  %6 = alloca i32, align 4
  store ptr %0, ptr %3, align 8
  br label %7

7:                                                ; preds = %174, %1
  %8 = load ptr, ptr %3, align 8
  %9 = getelementptr inbounds nuw %struct.pg_tzenum, ptr %8, i32 0, i32 1
  %10 = load i32, ptr %9, align 4
  %11 = icmp sge i32 %10, 0
  br i1 %11, label %12, label %176

12:                                               ; preds = %7
  call void @llvm.lifetime.start.p0(i64 8, ptr %4) #7
  call void @llvm.lifetime.start.p0(i64 2048, ptr %5) #7
  %13 = load ptr, ptr %3, align 8
  %14 = getelementptr inbounds nuw %struct.pg_tzenum, ptr %13, i32 0, i32 2
  %15 = load ptr, ptr %3, align 8
  %16 = getelementptr inbounds nuw %struct.pg_tzenum, ptr %15, i32 0, i32 1
  %17 = load i32, ptr %16, align 4
  %18 = sext i32 %17 to i64
  %19 = getelementptr inbounds [10 x ptr], ptr %14, i64 0, i64 %18
  %20 = load ptr, ptr %19, align 8
  %21 = load ptr, ptr %3, align 8
  %22 = getelementptr inbounds nuw %struct.pg_tzenum, ptr %21, i32 0, i32 3
  %23 = load ptr, ptr %3, align 8
  %24 = getelementptr inbounds nuw %struct.pg_tzenum, ptr %23, i32 0, i32 1
  %25 = load i32, ptr %24, align 4
  %26 = sext i32 %25 to i64
  %27 = getelementptr inbounds [10 x ptr], ptr %22, i64 0, i64 %26
  %28 = load ptr, ptr %27, align 8
  %29 = call ptr @ReadDir(ptr noundef %20, ptr noundef %28)
  store ptr %29, ptr %4, align 8
  %30 = load ptr, ptr %4, align 8
  %31 = icmp ne ptr %30, null
  br i1 %31, label %54, label %32

32:                                               ; preds = %12
  %33 = load ptr, ptr %3, align 8
  %34 = getelementptr inbounds nuw %struct.pg_tzenum, ptr %33, i32 0, i32 2
  %35 = load ptr, ptr %3, align 8
  %36 = getelementptr inbounds nuw %struct.pg_tzenum, ptr %35, i32 0, i32 1
  %37 = load i32, ptr %36, align 4
  %38 = sext i32 %37 to i64
  %39 = getelementptr inbounds [10 x ptr], ptr %34, i64 0, i64 %38
  %40 = load ptr, ptr %39, align 8
  %41 = call i32 @FreeDir(ptr noundef %40)
  %42 = load ptr, ptr %3, align 8
  %43 = getelementptr inbounds nuw %struct.pg_tzenum, ptr %42, i32 0, i32 3
  %44 = load ptr, ptr %3, align 8
  %45 = getelementptr inbounds nuw %struct.pg_tzenum, ptr %44, i32 0, i32 1
  %46 = load i32, ptr %45, align 4
  %47 = sext i32 %46 to i64
  %48 = getelementptr inbounds [10 x ptr], ptr %43, i64 0, i64 %47
  %49 = load ptr, ptr %48, align 8
  call void @pfree(ptr noundef %49)
  %50 = load ptr, ptr %3, align 8
  %51 = getelementptr inbounds nuw %struct.pg_tzenum, ptr %50, i32 0, i32 1
  %52 = load i32, ptr %51, align 4
  %53 = add i32 %52, -1
  store i32 %53, ptr %51, align 4
  store i32 2, ptr %6, align 4
  br label %174, !llvm.loop !10

54:                                               ; preds = %12
  %55 = load ptr, ptr %4, align 8
  %56 = getelementptr inbounds nuw %struct.dirent, ptr %55, i32 0, i32 4
  %57 = getelementptr inbounds [256 x i8], ptr %56, i64 0, i64 0
  %58 = load i8, ptr %57, align 1
  %59 = sext i8 %58 to i32
  %60 = icmp eq i32 %59, 46
  br i1 %60, label %61, label %62

61:                                               ; preds = %54
  store i32 2, ptr %6, align 4
  br label %174, !llvm.loop !10

62:                                               ; preds = %54
  %63 = getelementptr inbounds [2048 x i8], ptr %5, i64 0, i64 0
  %64 = load ptr, ptr %3, align 8
  %65 = getelementptr inbounds nuw %struct.pg_tzenum, ptr %64, i32 0, i32 3
  %66 = load ptr, ptr %3, align 8
  %67 = getelementptr inbounds nuw %struct.pg_tzenum, ptr %66, i32 0, i32 1
  %68 = load i32, ptr %67, align 4
  %69 = sext i32 %68 to i64
  %70 = getelementptr inbounds [10 x ptr], ptr %65, i64 0, i64 %69
  %71 = load ptr, ptr %70, align 8
  %72 = load ptr, ptr %4, align 8
  %73 = getelementptr inbounds nuw %struct.dirent, ptr %72, i32 0, i32 4
  %74 = getelementptr inbounds [256 x i8], ptr %73, i64 0, i64 0
  %75 = call i32 (ptr, i64, ptr, ...) @pg_snprintf(ptr noundef %63, i64 noundef 2048, ptr noundef @.str.8, ptr noundef %71, ptr noundef %74)
  %76 = getelementptr inbounds [2048 x i8], ptr %5, i64 0, i64 0
  %77 = load ptr, ptr %4, align 8
  %78 = call i32 @get_dirent_type(ptr noundef %76, ptr noundef %77, i1 noundef zeroext true, i32 noundef 21)
  %79 = icmp eq i32 %78, 3
  br i1 %79, label %80, label %142

80:                                               ; preds = %62
  %81 = load ptr, ptr %3, align 8
  %82 = getelementptr inbounds nuw %struct.pg_tzenum, ptr %81, i32 0, i32 1
  %83 = load i32, ptr %82, align 4
  %84 = icmp sge i32 %83, 9
  br i1 %84, label %85, label %96

85:                                               ; preds = %80
  br label %86

86:                                               ; preds = %85
  br i1 true, label %87, label %89

87:                                               ; preds = %86
  %88 = call zeroext i1 @errstart_cold(i32 noundef 21, ptr noundef null) #9
  br i1 %88, label %91, label %93

89:                                               ; preds = %86
  %90 = call zeroext i1 @errstart(i32 noundef 21, ptr noundef null)
  br i1 %90, label %91, label %93

91:                                               ; preds = %89, %87
  %92 = call i32 (ptr, ...) @errmsg_internal(ptr noundef @.str.9)
  call void @errfinish(ptr noundef @.str.2, i32 noundef 455, ptr noundef @__func__.pg_tzenumerate_next)
  br label %93

93:                                               ; preds = %91, %89, %87
  unreachable

94:                                               ; No predecessors!
  br label %95

95:                                               ; preds = %94
  br label %96

96:                                               ; preds = %95, %80
  %97 = load ptr, ptr %3, align 8
  %98 = getelementptr inbounds nuw %struct.pg_tzenum, ptr %97, i32 0, i32 1
  %99 = load i32, ptr %98, align 4
  %100 = add i32 %99, 1
  store i32 %100, ptr %98, align 4
  %101 = getelementptr inbounds [2048 x i8], ptr %5, i64 0, i64 0
  %102 = call ptr @pstrdup(ptr noundef %101)
  %103 = load ptr, ptr %3, align 8
  %104 = getelementptr inbounds nuw %struct.pg_tzenum, ptr %103, i32 0, i32 3
  %105 = load ptr, ptr %3, align 8
  %106 = getelementptr inbounds nuw %struct.pg_tzenum, ptr %105, i32 0, i32 1
  %107 = load i32, ptr %106, align 4
  %108 = sext i32 %107 to i64
  %109 = getelementptr inbounds [10 x ptr], ptr %104, i64 0, i64 %108
  store ptr %102, ptr %109, align 8
  %110 = getelementptr inbounds [2048 x i8], ptr %5, i64 0, i64 0
  %111 = call ptr @AllocateDir(ptr noundef %110)
  %112 = load ptr, ptr %3, align 8
  %113 = getelementptr inbounds nuw %struct.pg_tzenum, ptr %112, i32 0, i32 2
  %114 = load ptr, ptr %3, align 8
  %115 = getelementptr inbounds nuw %struct.pg_tzenum, ptr %114, i32 0, i32 1
  %116 = load i32, ptr %115, align 4
  %117 = sext i32 %116 to i64
  %118 = getelementptr inbounds [10 x ptr], ptr %113, i64 0, i64 %117
  store ptr %111, ptr %118, align 8
  %119 = load ptr, ptr %3, align 8
  %120 = getelementptr inbounds nuw %struct.pg_tzenum, ptr %119, i32 0, i32 2
  %121 = load ptr, ptr %3, align 8
  %122 = getelementptr inbounds nuw %struct.pg_tzenum, ptr %121, i32 0, i32 1
  %123 = load i32, ptr %122, align 4
  %124 = sext i32 %123 to i64
  %125 = getelementptr inbounds [10 x ptr], ptr %120, i64 0, i64 %124
  %126 = load ptr, ptr %125, align 8
  %127 = icmp ne ptr %126, null
  br i1 %127, label %141, label %128

128:                                              ; preds = %96
  br label %129

129:                                              ; preds = %128
  br i1 true, label %130, label %132

130:                                              ; preds = %129
  %131 = call zeroext i1 @errstart_cold(i32 noundef 21, ptr noundef null) #9
  br i1 %131, label %134, label %138

132:                                              ; preds = %129
  %133 = call zeroext i1 @errstart(i32 noundef 21, ptr noundef null)
  br i1 %133, label %134, label %138

134:                                              ; preds = %132, %130
  %135 = call i32 @errcode_for_file_access()
  %136 = getelementptr inbounds [2048 x i8], ptr %5, i64 0, i64 0
  %137 = call i32 (ptr, ...) @errmsg(ptr noundef @.str.7, ptr noundef %136)
  call void @errfinish(ptr noundef @.str.2, i32 noundef 463, ptr noundef @__func__.pg_tzenumerate_next)
  br label %138

138:                                              ; preds = %134, %132, %130
  unreachable

139:                                              ; No predecessors!
  br label %140

140:                                              ; preds = %139
  br label %141

141:                                              ; preds = %140, %96
  store i32 2, ptr %6, align 4
  br label %174, !llvm.loop !10

142:                                              ; preds = %62
  %143 = getelementptr inbounds [2048 x i8], ptr %5, i64 0, i64 0
  %144 = load ptr, ptr %3, align 8
  %145 = getelementptr inbounds nuw %struct.pg_tzenum, ptr %144, i32 0, i32 0
  %146 = load i32, ptr %145, align 8
  %147 = sext i32 %146 to i64
  %148 = getelementptr inbounds i8, ptr %143, i64 %147
  %149 = load ptr, ptr %3, align 8
  %150 = getelementptr inbounds nuw %struct.pg_tzenum, ptr %149, i32 0, i32 4
  %151 = getelementptr inbounds nuw %struct.pg_tz, ptr %150, i32 0, i32 1
  %152 = call i32 @tzload(ptr noundef %148, ptr noundef null, ptr noundef %151, i1 noundef zeroext true)
  %153 = icmp ne i32 %152, 0
  br i1 %153, label %154, label %155

154:                                              ; preds = %142
  store i32 2, ptr %6, align 4
  br label %174, !llvm.loop !10

155:                                              ; preds = %142
  %156 = load ptr, ptr %3, align 8
  %157 = getelementptr inbounds nuw %struct.pg_tzenum, ptr %156, i32 0, i32 4
  %158 = call zeroext i1 @pg_tz_acceptable(ptr noundef %157)
  br i1 %158, label %160, label %159

159:                                              ; preds = %155
  store i32 2, ptr %6, align 4
  br label %174, !llvm.loop !10

160:                                              ; preds = %155
  %161 = load ptr, ptr %3, align 8
  %162 = getelementptr inbounds nuw %struct.pg_tzenum, ptr %161, i32 0, i32 4
  %163 = getelementptr inbounds nuw %struct.pg_tz, ptr %162, i32 0, i32 0
  %164 = getelementptr inbounds [256 x i8], ptr %163, i64 0, i64 0
  %165 = getelementptr inbounds [2048 x i8], ptr %5, i64 0, i64 0
  %166 = load ptr, ptr %3, align 8
  %167 = getelementptr inbounds nuw %struct.pg_tzenum, ptr %166, i32 0, i32 0
  %168 = load i32, ptr %167, align 8
  %169 = sext i32 %168 to i64
  %170 = getelementptr inbounds i8, ptr %165, i64 %169
  %171 = call i64 @strlcpy(ptr noundef %164, ptr noundef %170, i64 noundef 256)
  %172 = load ptr, ptr %3, align 8
  %173 = getelementptr inbounds nuw %struct.pg_tzenum, ptr %172, i32 0, i32 4
  store ptr %173, ptr %2, align 8
  store i32 1, ptr %6, align 4
  br label %174

174:                                              ; preds = %160, %159, %154, %141, %61, %32
  call void @llvm.lifetime.end.p0(i64 2048, ptr %5) #7
  call void @llvm.lifetime.end.p0(i64 8, ptr %4) #7
  %175 = load i32, ptr %6, align 4
  switch i32 %175, label %179 [
    i32 2, label %7
    i32 1, label %177
  ]

176:                                              ; preds = %7
  store ptr null, ptr %2, align 8
  br label %177

177:                                              ; preds = %176, %174
  %178 = load ptr, ptr %2, align 8
  ret ptr %178

179:                                              ; preds = %174
  unreachable
}