; Function Attrs: nounwind uwtable
define dso_local ptr @pg_tzenumerate_next(ptr noundef %0) local_unnamed_addr #0 {
  %2 = alloca [2048 x i8], align 16
  %3 = getelementptr inbounds nuw i8, ptr %0, i64 4
  %4 = load i32, ptr %3, align 4
  %5 = icmp sgt i32 %4, -1
  br i1 %5, label %.lr.ph, label %.loopexit

.lr.ph:                                           ; preds = %1
  %6 = getelementptr inbounds nuw i8, ptr %0, i64 8
  %7 = getelementptr inbounds nuw i8, ptr %0, i64 88
  %8 = getelementptr inbounds nuw i8, ptr %0, i64 168
  %9 = getelementptr inbounds nuw i8, ptr %0, i64 424
  br label %10

10:                                               ; preds = %.lr.ph, %77
  %11 = phi i32 [ %4, %.lr.ph ], [ %78, %77 ]
  call void @llvm.lifetime.start.p0(i64 2048, ptr nonnull %2) #10
  %12 = zext nneg i32 %11 to i64
  %13 = getelementptr inbounds nuw [10 x ptr], ptr %6, i64 0, i64 %12
  %14 = load ptr, ptr %13, align 8
  %15 = getelementptr inbounds nuw [10 x ptr], ptr %7, i64 0, i64 %12
  %16 = load ptr, ptr %15, align 8
  %17 = call ptr @ReadDir(ptr noundef %14, ptr noundef %16) #10
  %.not = icmp eq ptr %17, null
  br i1 %.not, label %18, label %30

18:                                               ; preds = %10
  %19 = load i32, ptr %3, align 4
  %20 = sext i32 %19 to i64
  %21 = getelementptr inbounds [10 x ptr], ptr %6, i64 0, i64 %20
  %22 = load ptr, ptr %21, align 8
  %23 = call i32 @FreeDir(ptr noundef %22) #10
  %24 = load i32, ptr %3, align 4
  %25 = sext i32 %24 to i64
  %26 = getelementptr inbounds [10 x ptr], ptr %7, i64 0, i64 %25
  %27 = load ptr, ptr %26, align 8
  call void @pfree(ptr noundef %27) #10
  %28 = load i32, ptr %3, align 4
  %29 = add i32 %28, -1
  store i32 %29, ptr %3, align 4
  br label %77, !llvm.loop !8

30:                                               ; preds = %10
  %31 = getelementptr inbounds nuw i8, ptr %17, i64 19
  %32 = load i8, ptr %31, align 1
  %33 = icmp eq i8 %32, 46
  br i1 %33, label %thread-pre-split, label %34, !llvm.loop !8

34:                                               ; preds = %30
  %35 = load i32, ptr %3, align 4
  %36 = sext i32 %35 to i64
  %37 = getelementptr inbounds [10 x ptr], ptr %7, i64 0, i64 %36
  %38 = load ptr, ptr %37, align 8
  %39 = call i32 (ptr, i64, ptr, ...) @pg_snprintf(ptr noundef nonnull %2, i64 noundef 2048, ptr noundef nonnull @.str.8, ptr noundef %38, ptr noundef nonnull %31) #10
  %40 = call i32 @get_dirent_type(ptr noundef nonnull %2, ptr noundef nonnull %17, i1 noundef zeroext true, i32 noundef 21) #10
  %41 = icmp eq i32 %40, 3
  br i1 %41, label %42, label %66

42:                                               ; preds = %34
  %43 = load i32, ptr %3, align 4
  %44 = icmp sgt i32 %43, 8
  br i1 %44, label %45, label %48

45:                                               ; preds = %42
  %46 = call zeroext i1 @errstart_cold(i32 noundef 21, ptr noundef null) #12
  call void @llvm.assume(i1 %46)
  %47 = call i32 (ptr, ...) @errmsg_internal(ptr noundef nonnull @.str.9) #10
  call void @errfinish(ptr noundef nonnull @.str.2, i32 noundef 455, ptr noundef nonnull @__func__.pg_tzenumerate_next) #10
  unreachable

48:                                               ; preds = %42
  %49 = add nsw i32 %43, 1
  store i32 %49, ptr %3, align 4
  %50 = call ptr @pstrdup(ptr noundef nonnull %2) #10
  %51 = load i32, ptr %3, align 4
  %52 = sext i32 %51 to i64
  %53 = getelementptr inbounds [10 x ptr], ptr %7, i64 0, i64 %52
  store ptr %50, ptr %53, align 8
  %54 = call ptr @AllocateDir(ptr noundef nonnull %2) #10
  %55 = load i32, ptr %3, align 4
  %56 = sext i32 %55 to i64
  %57 = getelementptr inbounds [10 x ptr], ptr %6, i64 0, i64 %56
  store ptr %54, ptr %57, align 8
  %58 = load i32, ptr %3, align 4
  %59 = sext i32 %58 to i64
  %60 = getelementptr inbounds [10 x ptr], ptr %6, i64 0, i64 %59
  %61 = load ptr, ptr %60, align 8
  %.not35 = icmp eq ptr %61, null
  br i1 %.not35, label %62, label %77, !llvm.loop !8

62:                                               ; preds = %48
  %63 = call zeroext i1 @errstart_cold(i32 noundef 21, ptr noundef null) #12
  call void @llvm.assume(i1 %63)
  %64 = call i32 @errcode_for_file_access() #10
  %65 = call i32 (ptr, ...) @errmsg(ptr noundef nonnull @.str.7, ptr noundef nonnull %2) #10
  call void @errfinish(ptr noundef nonnull @.str.2, i32 noundef 463, ptr noundef nonnull @__func__.pg_tzenumerate_next) #10
  unreachable

66:                                               ; preds = %34
  %67 = load i32, ptr %0, align 8
  %68 = sext i32 %67 to i64
  %69 = getelementptr inbounds i8, ptr %2, i64 %68
  %70 = call i32 @tzload(ptr noundef nonnull %69, ptr noundef null, ptr noundef nonnull %9, i1 noundef zeroext true) #10
  %.not34 = icmp eq i32 %70, 0
  br i1 %.not34, label %71, label %thread-pre-split, !llvm.loop !8

71:                                               ; preds = %66
  %72 = call zeroext i1 @pg_tz_acceptable(ptr noundef nonnull %8) #10
  br i1 %72, label %.thread, label %thread-pre-split, !llvm.loop !8

.thread:                                          ; preds = %71
  %73 = load i32, ptr %0, align 8
  %74 = sext i32 %73 to i64
  %75 = getelementptr inbounds i8, ptr %2, i64 %74
  %76 = call i64 @strlcpy(ptr noundef nonnull dereferenceable(1) %8, ptr noundef nonnull dereferenceable(1) %75, i64 noundef 256) #10
  call void @llvm.lifetime.end.p0(i64 2048, ptr nonnull %2) #10
  br label %.loopexit

thread-pre-split:                                 ; preds = %30, %66, %71
  %.pr = load i32, ptr %3, align 4
  br label %77

77:                                               ; preds = %thread-pre-split, %48, %18
  %78 = phi i32 [ %.pr, %thread-pre-split ], [ %58, %48 ], [ %29, %18 ]
  call void @llvm.lifetime.end.p0(i64 2048, ptr nonnull %2) #10
  %79 = icmp sgt i32 %78, -1
  br i1 %79, label %10, label %.loopexit

.loopexit:                                        ; preds = %77, %1, %.thread
  %.2 = phi ptr [ %8, %.thread ], [ null, %1 ], [ null, %77 ]
  ret ptr %.2
}